target datalayout = "e-m:e-p270:32:32-p271:32:32-p272:64:64-i64:64-i128:128-f80:128-n8:16:32:64-S128"
target triple = "x86_64-pc-linux-gnu"

%struct.AVFormatContext = type { ptr, ptr, ptr, ptr, ptr, i32, i32, ptr, i32, ptr, i32, ptr, ptr, i64, i64, i64, i32, i32, i32, i64, i64, ptr, i32, i32, ptr, i32, i32, i32, i32, ptr, i64, i32, i32, %struct.AVIOInterruptCB, i32, i32, i32, i32, i64, i32, i32, i32, i32, i32, i32, i32, i32, i32, i32, i32, i32, i64, i32, i32, i32, i32, i32, ptr, ptr, ptr, ptr, i32, ptr, ptr, ptr, ptr, i32, ptr, ptr, i64, ptr, ptr, ptr, i64 }
%struct.AVIOInterruptCB = type { ptr, ptr }
%struct.VobSubDemuxContext = type { ptr, ptr, [32 x %struct.FFDemuxSubtitlesQueue], ptr }
%struct.FFDemuxSubtitlesQueue = type { ptr, i32, i32, i32, i32, i32 }

; Function Attrs: nounwind uwtable
define internal i32 @vobsub_read_close(ptr noundef %0) #0 {
  %2 = alloca ptr, align 8
  %3 = alloca ptr, align 8
  %4 = alloca i32, align 4
  store ptr %0, ptr %2, align 8, !tbaa !18
  call void @llvm.lifetime.start.p0(i64 8, ptr %3) #12
  %5 = load ptr, ptr %2, align 8, !tbaa !18
  %6 = getelementptr inbounds nuw %struct.AVFormatContext, ptr %5, i32 0, i32 3
  %7 = load ptr, ptr %6, align 8, !tbaa !20
  store ptr %7, ptr %3, align 8, !tbaa !94
  call void @llvm.lifetime.start.p0(i64 4, ptr %4) #12
  store i32 0, ptr %4, align 4, !tbaa !9
  br label %8

8:                                                ; preds = %20, %1
  %9 = load i32, ptr %4, align 4, !tbaa !9
  %10 = load ptr, ptr %2, align 8, !tbaa !18
  %11 = getelementptr inbounds nuw %struct.AVFormatContext, ptr %10, i32 0, i32 6
  %12 = load i32, ptr %11, align 4, !tbaa !47
  %13 = icmp ult i32 %9, %12
  br i1 %13, label %14, label %23

14:                                               ; preds = %8
  %15 = load ptr, ptr %3, align 8, !tbaa !94
  %16 = getelementptr inbounds nuw %struct.VobSubDemuxContext, ptr %15, i32 0, i32 2
  %17 = load i32, ptr %4, align 4, !tbaa !9
  %18 = sext i32 %17 to i64
  %19 = getelementptr inbounds [32 x %struct.FFDemuxSubtitlesQueue], ptr %16, i64 0, i64 %18
  call void @ff_subtitles_queue_clean(ptr noundef %19)
  br label %20

20:                                               ; preds = %14
  %21 = load i32, ptr %4, align 4, !tbaa !9
  %22 = add nsw i32 %21, 1
  store i32 %22, ptr %4, align 4, !tbaa !9
  br label %8, !llvm.loop !124

23:                                               ; preds = %8
  %24 = load ptr, ptr %3, align 8, !tbaa !94
  %25 = getelementptr inbounds nuw %struct.VobSubDemuxContext, ptr %24, i32 0, i32 1
  call void @avformat_close_input(ptr noundef %25)
  call void @llvm.lifetime.end.p0(i64 4, ptr %4) #12
  call void @llvm.lifetime.end.p0(i64 8, ptr %3) #12
  ret i32 0
}